
libdllexport.so：     文件格式 elf64-x86-64


Disassembly of section .init:

0000000000000a38 <_init>:
 a38:	48 83 ec 08          	sub    $0x8,%rsp
 a3c:	48 8b 05 75 15 20 00 	mov    0x201575(%rip),%rax        # 201fb8 <_DYNAMIC+0x200>
 a43:	48 85 c0             	test   %rax,%rax
 a46:	74 05                	je     a4d <_init+0x15>
 a48:	e8 93 00 00 00       	callq  ae0 <__tls_get_addr@plt+0x10>
 a4d:	48 83 c4 08          	add    $0x8,%rsp
 a51:	c3                   	retq   

Disassembly of section .plt:

0000000000000a60 <_ZN5PointC1Ev@plt-0x10>:
 a60:	ff 35 a2 15 20 00    	pushq  0x2015a2(%rip)        # 202008 <_GLOBAL_OFFSET_TABLE_+0x8>
 a66:	ff 25 a4 15 20 00    	jmpq   *0x2015a4(%rip)        # 202010 <_GLOBAL_OFFSET_TABLE_+0x10>
 a6c:	0f 1f 40 00          	nopl   0x0(%rax)

0000000000000a70 <_ZN5PointC1Ev@plt>:
 a70:	ff 25 a2 15 20 00    	jmpq   *0x2015a2(%rip)        # 202018 <_GLOBAL_OFFSET_TABLE_+0x18>
 a76:	68 00 00 00 00       	pushq  $0x0
 a7b:	e9 e0 ff ff ff       	jmpq   a60 <_init+0x28>

0000000000000a80 <_ZNSt8ios_base4InitC1Ev@plt>:
 a80:	ff 25 9a 15 20 00    	jmpq   *0x20159a(%rip)        # 202020 <_GLOBAL_OFFSET_TABLE_+0x20>
 a86:	68 01 00 00 00       	pushq  $0x1
 a8b:	e9 d0 ff ff ff       	jmpq   a60 <_init+0x28>

0000000000000a90 <__cxa_thread_atexit@plt>:
 a90:	ff 25 92 15 20 00    	jmpq   *0x201592(%rip)        # 202028 <_GLOBAL_OFFSET_TABLE_+0x28>
 a96:	68 02 00 00 00       	pushq  $0x2
 a9b:	e9 c0 ff ff ff       	jmpq   a60 <_init+0x28>

0000000000000aa0 <__cxa_atexit@plt>:
 aa0:	ff 25 8a 15 20 00    	jmpq   *0x20158a(%rip)        # 202030 <_GLOBAL_OFFSET_TABLE_+0x30>
 aa6:	68 03 00 00 00       	pushq  $0x3
 aab:	e9 b0 ff ff ff       	jmpq   a60 <_init+0x28>

0000000000000ab0 <_ZStlsISt11char_traitsIcEERSt13basic_ostreamIcT_ES5_PKc@plt>:
 ab0:	ff 25 82 15 20 00    	jmpq   *0x201582(%rip)        # 202038 <_GLOBAL_OFFSET_TABLE_+0x38>
 ab6:	68 04 00 00 00       	pushq  $0x4
 abb:	e9 a0 ff ff ff       	jmpq   a60 <_init+0x28>

0000000000000ac0 <_ZNSolsEPKv@plt>:
 ac0:	ff 25 7a 15 20 00    	jmpq   *0x20157a(%rip)        # 202040 <_GLOBAL_OFFSET_TABLE_+0x40>
 ac6:	68 05 00 00 00       	pushq  $0x5
 acb:	e9 90 ff ff ff       	jmpq   a60 <_init+0x28>

0000000000000ad0 <__tls_get_addr@plt>:
 ad0:	ff 25 72 15 20 00    	jmpq   *0x201572(%rip)        # 202048 <_GLOBAL_OFFSET_TABLE_+0x48>
 ad6:	68 06 00 00 00       	pushq  $0x6
 adb:	e9 80 ff ff ff       	jmpq   a60 <_init+0x28>

Disassembly of section .plt.got:

0000000000000ae0 <.plt.got>:
 ae0:	ff 25 d2 14 20 00    	jmpq   *0x2014d2(%rip)        # 201fb8 <_DYNAMIC+0x200>
 ae6:	66 90                	xchg   %ax,%ax
 ae8:	ff 25 ea 14 20 00    	jmpq   *0x2014ea(%rip)        # 201fd8 <_DYNAMIC+0x220>
 aee:	66 90                	xchg   %ax,%ax

Disassembly of section .text:

0000000000000af0 <deregister_tm_clones>:
 af0:	48 8d 3d 69 15 20 00 	lea    0x201569(%rip),%rdi        # 202060 <_edata>
 af7:	55                   	push   %rbp
 af8:	48 8d 05 61 15 20 00 	lea    0x201561(%rip),%rax        # 202060 <_edata>
 aff:	48 39 f8             	cmp    %rdi,%rax
 b02:	48 89 e5             	mov    %rsp,%rbp
 b05:	74 19                	je     b20 <deregister_tm_clones+0x30>
 b07:	48 8b 05 ba 14 20 00 	mov    0x2014ba(%rip),%rax        # 201fc8 <_DYNAMIC+0x210>
 b0e:	48 85 c0             	test   %rax,%rax
 b11:	74 0d                	je     b20 <deregister_tm_clones+0x30>
 b13:	5d                   	pop    %rbp
 b14:	ff e0                	jmpq   *%rax
 b16:	66 2e 0f 1f 84 00 00 	nopw   %cs:0x0(%rax,%rax,1)
 b1d:	00 00 00 
 b20:	5d                   	pop    %rbp
 b21:	c3                   	retq   
 b22:	0f 1f 40 00          	nopl   0x0(%rax)
 b26:	66 2e 0f 1f 84 00 00 	nopw   %cs:0x0(%rax,%rax,1)
 b2d:	00 00 00 

0000000000000b30 <register_tm_clones>:
 b30:	48 8d 3d 29 15 20 00 	lea    0x201529(%rip),%rdi        # 202060 <_edata>
 b37:	48 8d 35 22 15 20 00 	lea    0x201522(%rip),%rsi        # 202060 <_edata>
 b3e:	55                   	push   %rbp
 b3f:	48 29 fe             	sub    %rdi,%rsi
 b42:	48 89 e5             	mov    %rsp,%rbp
 b45:	48 c1 fe 03          	sar    $0x3,%rsi
 b49:	48 89 f0             	mov    %rsi,%rax
 b4c:	48 c1 e8 3f          	shr    $0x3f,%rax
 b50:	48 01 c6             	add    %rax,%rsi
 b53:	48 d1 fe             	sar    %rsi
 b56:	74 18                	je     b70 <register_tm_clones+0x40>
 b58:	48 8b 05 71 14 20 00 	mov    0x201471(%rip),%rax        # 201fd0 <_DYNAMIC+0x218>
 b5f:	48 85 c0             	test   %rax,%rax
 b62:	74 0c                	je     b70 <register_tm_clones+0x40>
 b64:	5d                   	pop    %rbp
 b65:	ff e0                	jmpq   *%rax
 b67:	66 0f 1f 84 00 00 00 	nopw   0x0(%rax,%rax,1)
 b6e:	00 00 
 b70:	5d                   	pop    %rbp
 b71:	c3                   	retq   
 b72:	0f 1f 40 00          	nopl   0x0(%rax)
 b76:	66 2e 0f 1f 84 00 00 	nopw   %cs:0x0(%rax,%rax,1)
 b7d:	00 00 00 

0000000000000b80 <__do_global_dtors_aux>:
 b80:	80 3d d9 14 20 00 00 	cmpb   $0x0,0x2014d9(%rip)        # 202060 <_edata>
 b87:	75 2f                	jne    bb8 <__do_global_dtors_aux+0x38>
 b89:	48 83 3d 47 14 20 00 	cmpq   $0x0,0x201447(%rip)        # 201fd8 <_DYNAMIC+0x220>
 b90:	00 
 b91:	55                   	push   %rbp
 b92:	48 89 e5             	mov    %rsp,%rbp
 b95:	74 0c                	je     ba3 <__do_global_dtors_aux+0x23>
 b97:	48 8b 3d b2 14 20 00 	mov    0x2014b2(%rip),%rdi        # 202050 <__dso_handle>
 b9e:	e8 45 ff ff ff       	callq  ae8 <__tls_get_addr@plt+0x18>
 ba3:	e8 48 ff ff ff       	callq  af0 <deregister_tm_clones>
 ba8:	c6 05 b1 14 20 00 01 	movb   $0x1,0x2014b1(%rip)        # 202060 <_edata>
 baf:	5d                   	pop    %rbp
 bb0:	c3                   	retq   
 bb1:	0f 1f 80 00 00 00 00 	nopl   0x0(%rax)
 bb8:	f3 c3                	repz retq 
 bba:	66 0f 1f 44 00 00    	nopw   0x0(%rax,%rax,1)

0000000000000bc0 <frame_dummy>:
 bc0:	55                   	push   %rbp
 bc1:	48 89 e5             	mov    %rsp,%rbp
 bc4:	5d                   	pop    %rbp
 bc5:	e9 66 ff ff ff       	jmpq   b30 <register_tm_clones>

0000000000000bca <get_local_error_no>:
 bca:	55                   	push   %rbp
 bcb:	48 89 e5             	mov    %rsp,%rbp
 bce:	66 48 8d 3d 1a 14 20 	data16 lea 0x20141a(%rip),%rdi        # 201ff0 <_DYNAMIC+0x238>
 bd5:	00 
 bd6:	66 66 48 e8 f2 fe ff 	data16 data16 callq ad0 <__tls_get_addr@plt>
 bdd:	ff 
 bde:	5d                   	pop    %rbp
 bdf:	c3                   	retq   

0000000000000be0 <set_local_error_no>:
 be0:	55                   	push   %rbp
 be1:	48 89 e5             	mov    %rsp,%rbp
 be4:	48 83 ec 10          	sub    $0x10,%rsp
 be8:	89 7d fc             	mov    %edi,-0x4(%rbp)
 beb:	66 48 8d 3d fd 13 20 	data16 lea 0x2013fd(%rip),%rdi        # 201ff0 <_DYNAMIC+0x238>
 bf2:	00 
 bf3:	66 66 48 e8 d5 fe ff 	data16 data16 callq ad0 <__tls_get_addr@plt>
 bfa:	ff 
 bfb:	48 89 c2             	mov    %rax,%rdx
 bfe:	8b 45 fc             	mov    -0x4(%rbp),%eax
 c01:	89 02                	mov    %eax,(%rdx)
 c03:	90                   	nop
 c04:	c9                   	leaveq 
 c05:	c3                   	retq   

0000000000000c06 <get_local_point>:
 c06:	55                   	push   %rbp
 c07:	48 89 e5             	mov    %rsp,%rbp
 c0a:	e8 c0 00 00 00       	callq  ccf <_ZTWL1x>
 c0f:	5d                   	pop    %rbp
 c10:	c3                   	retq   

0000000000000c11 <_Z41__static_initialization_and_destruction_0ii>:
 c11:	55                   	push   %rbp
 c12:	48 89 e5             	mov    %rsp,%rbp
 c15:	48 83 ec 10          	sub    $0x10,%rsp
 c19:	89 7d fc             	mov    %edi,-0x4(%rbp)
 c1c:	89 75 f8             	mov    %esi,-0x8(%rbp)
 c1f:	83 7d fc 01          	cmpl   $0x1,-0x4(%rbp)
 c23:	75 32                	jne    c57 <_Z41__static_initialization_and_destruction_0ii+0x46>
 c25:	81 7d f8 ff ff 00 00 	cmpl   $0xffff,-0x8(%rbp)
 c2c:	75 29                	jne    c57 <_Z41__static_initialization_and_destruction_0ii+0x46>
 c2e:	48 8d 3d 2c 14 20 00 	lea    0x20142c(%rip),%rdi        # 202061 <_ZStL8__ioinit>
 c35:	e8 46 fe ff ff       	callq  a80 <_ZNSt8ios_base4InitC1Ev@plt>
 c3a:	48 8d 15 0f 14 20 00 	lea    0x20140f(%rip),%rdx        # 202050 <__dso_handle>
 c41:	48 8d 35 19 14 20 00 	lea    0x201419(%rip),%rsi        # 202061 <_ZStL8__ioinit>
 c48:	48 8b 05 71 13 20 00 	mov    0x201371(%rip),%rax        # 201fc0 <_DYNAMIC+0x208>
 c4f:	48 89 c7             	mov    %rax,%rdi
 c52:	e8 49 fe ff ff       	callq  aa0 <__cxa_atexit@plt>
 c57:	90                   	nop
 c58:	c9                   	leaveq 
 c59:	c3                   	retq   

0000000000000c5a <__tls_init>:
 c5a:	55                   	push   %rbp
 c5b:	48 89 e5             	mov    %rsp,%rbp
 c5e:	66 48 8d 3d 42 13 20 	data16 lea 0x201342(%rip),%rdi        # 201fa8 <_DYNAMIC+0x1f0>
 c65:	00 
 c66:	66 66 48 e8 62 fe ff 	data16 data16 callq ad0 <__tls_get_addr@plt>
 c6d:	ff 
 c6e:	0f b6 00             	movzbl (%rax),%eax
 c71:	83 f0 01             	xor    $0x1,%eax
 c74:	84 c0                	test   %al,%al
 c76:	74 54                	je     ccc <__tls_init+0x72>
 c78:	66 48 8d 3d 28 13 20 	data16 lea 0x201328(%rip),%rdi        # 201fa8 <_DYNAMIC+0x1f0>
 c7f:	00 
 c80:	66 66 48 e8 48 fe ff 	data16 data16 callq ad0 <__tls_get_addr@plt>
 c87:	ff 
 c88:	c6 00 01             	movb   $0x1,(%rax)
 c8b:	66 48 8d 3d 05 13 20 	data16 lea 0x201305(%rip),%rdi        # 201f98 <_DYNAMIC+0x1e0>
 c92:	00 
 c93:	66 66 48 e8 35 fe ff 	data16 data16 callq ad0 <__tls_get_addr@plt>
 c9a:	ff 
 c9b:	48 89 c7             	mov    %rax,%rdi
 c9e:	e8 cd fd ff ff       	callq  a70 <_ZN5PointC1Ev@plt>
 ca3:	66 48 8d 3d ed 12 20 	data16 lea 0x2012ed(%rip),%rdi        # 201f98 <_DYNAMIC+0x1e0>
 caa:	00 
 cab:	66 66 48 e8 1d fe ff 	data16 data16 callq ad0 <__tls_get_addr@plt>
 cb2:	ff 
 cb3:	48 8d 15 96 13 20 00 	lea    0x201396(%rip),%rdx        # 202050 <__dso_handle>
 cba:	48 89 c6             	mov    %rax,%rsi
 cbd:	48 8b 05 1c 13 20 00 	mov    0x20131c(%rip),%rax        # 201fe0 <_DYNAMIC+0x228>
 cc4:	48 89 c7             	mov    %rax,%rdi
 cc7:	e8 c4 fd ff ff       	callq  a90 <__cxa_thread_atexit@plt>
 ccc:	90                   	nop
 ccd:	5d                   	pop    %rbp
 cce:	c3                   	retq   

0000000000000ccf <_ZTWL1x>:
 ccf:	55                   	push   %rbp
 cd0:	48 89 e5             	mov    %rsp,%rbp
 cd3:	e8 82 ff ff ff       	callq  c5a <__tls_init>
 cd8:	66 48 8d 3d b8 12 20 	data16 lea 0x2012b8(%rip),%rdi        # 201f98 <_DYNAMIC+0x1e0>
 cdf:	00 
 ce0:	66 66 48 e8 e8 fd ff 	data16 data16 callq ad0 <__tls_get_addr@plt>
 ce7:	ff 
 ce8:	5d                   	pop    %rbp
 ce9:	c3                   	retq   

0000000000000cea <_GLOBAL__sub_I_dllexport.cc>:
 cea:	55                   	push   %rbp
 ceb:	48 89 e5             	mov    %rsp,%rbp
 cee:	be ff ff 00 00       	mov    $0xffff,%esi
 cf3:	bf 01 00 00 00       	mov    $0x1,%edi
 cf8:	e8 14 ff ff ff       	callq  c11 <_Z41__static_initialization_and_destruction_0ii>
 cfd:	5d                   	pop    %rbp
 cfe:	c3                   	retq   
 cff:	90                   	nop

0000000000000d00 <_ZN5PointC1Ev>:
 d00:	55                   	push   %rbp
 d01:	48 89 e5             	mov    %rsp,%rbp
 d04:	48 83 ec 10          	sub    $0x10,%rsp
 d08:	48 89 7d f8          	mov    %rdi,-0x8(%rbp)
 d0c:	48 8b 45 f8          	mov    -0x8(%rbp),%rax
 d10:	48 89 c6             	mov    %rax,%rsi
 d13:	48 8b 05 ce 12 20 00 	mov    0x2012ce(%rip),%rax        # 201fe8 <_DYNAMIC+0x230>
 d1a:	48 89 c7             	mov    %rax,%rdi
 d1d:	e8 9e fd ff ff       	callq  ac0 <_ZNSolsEPKv@plt>
 d22:	48 8d 35 49 00 00 00 	lea    0x49(%rip),%rsi        # d72 <_ZStL19piecewise_construct+0x1>
 d29:	48 89 c7             	mov    %rax,%rdi
 d2c:	e8 7f fd ff ff       	callq  ab0 <_ZStlsISt11char_traitsIcEERSt13basic_ostreamIcT_ES5_PKc@plt>
 d31:	90                   	nop
 d32:	c9                   	leaveq 
 d33:	c3                   	retq   

0000000000000d34 <_ZN5PointD1Ev>:
 d34:	55                   	push   %rbp
 d35:	48 89 e5             	mov    %rsp,%rbp
 d38:	48 83 ec 10          	sub    $0x10,%rsp
 d3c:	48 89 7d f8          	mov    %rdi,-0x8(%rbp)
 d40:	48 8b 45 f8          	mov    -0x8(%rbp),%rax
 d44:	48 89 c6             	mov    %rax,%rsi
 d47:	48 8b 05 9a 12 20 00 	mov    0x20129a(%rip),%rax        # 201fe8 <_DYNAMIC+0x230>
 d4e:	48 89 c7             	mov    %rax,%rdi
 d51:	e8 6a fd ff ff       	callq  ac0 <_ZNSolsEPKv@plt>
 d56:	48 8d 35 2d 00 00 00 	lea    0x2d(%rip),%rsi        # d8a <_ZStL19piecewise_construct+0x19>
 d5d:	48 89 c7             	mov    %rax,%rdi
 d60:	e8 4b fd ff ff       	callq  ab0 <_ZStlsISt11char_traitsIcEERSt13basic_ostreamIcT_ES5_PKc@plt>
 d65:	90                   	nop
 d66:	c9                   	leaveq 
 d67:	c3                   	retq   

Disassembly of section .fini:

0000000000000d68 <_fini>:
 d68:	48 83 ec 08          	sub    $0x8,%rsp
 d6c:	48 83 c4 08          	add    $0x8,%rsp
 d70:	c3                   	retq   
